target datalayout = "e-m:e-p270:32:32-p271:32:32-p272:64:64-i64:64-i128:128-f80:128-n8:16:32:64-S128"
target triple = "x86_64-pc-linux-gnu"

%struct.AVChannelLayout = type { i32, i32, %union.anon.1, ptr }
%union.anon.1 = type { i64 }
%struct.AVRational = type { i32, i32 }
%struct.FillBordersContext = type { ptr, i32, i32, i32, i32, i32, i32, i32, [4 x %struct.Borders], [4 x i32], [4 x i32], [4 x i8], [4 x i8], [4 x i8], ptr }
%struct.Borders = type { i32, i32, i32, i32 }
%struct.AVFrame = type { [8 x ptr], [8 x i32], ptr, i32, i32, i32, i32, i32, %struct.AVRational, i64, i64, %struct.AVRational, i32, ptr, i32, i32, [8 x ptr], ptr, i32, ptr, i32, i32, i32, i32, i32, i32, i32, i64, ptr, i32, ptr, ptr, i64, i64, i64, i64, ptr, %struct.AVChannelLayout, i64 }

; Function Attrs: nounwind uwtable
define internal void @fixed_borders8(ptr noundef %0, ptr noundef %1) #0 {
  %3 = alloca ptr, align 8
  %4 = alloca ptr, align 8
  %5 = alloca i32, align 4
  %6 = alloca i32, align 4
  %7 = alloca ptr, align 8
  %8 = alloca i8, align 1
  %9 = alloca i64, align 8
  store ptr %0, ptr %3, align 8, !tbaa !37
  store ptr %1, ptr %4, align 8, !tbaa !26
  call void @llvm.lifetime.start.p0(i64 4, ptr %5) #8
  call void @llvm.lifetime.start.p0(i64 4, ptr %6) #8
  store i32 0, ptr %5, align 4, !tbaa !11
  br label %10

10:                                               ; preds = %192, %2
  %11 = load i32, ptr %5, align 4, !tbaa !11
  %12 = load ptr, ptr %3, align 8, !tbaa !37
  %13 = getelementptr inbounds nuw %struct.FillBordersContext, ptr %12, i32 0, i32 6
  %14 = load i32, ptr %13, align 4, !tbaa !48
  %15 = icmp slt i32 %11, %14
  br i1 %15, label %16, label %195

16:                                               ; preds = %10
  call void @llvm.lifetime.start.p0(i64 8, ptr %7) #8
  %17 = load ptr, ptr %4, align 8, !tbaa !26
  %18 = getelementptr inbounds nuw %struct.AVFrame, ptr %17, i32 0, i32 0
  %19 = load i32, ptr %5, align 4, !tbaa !11
  %20 = sext i32 %19 to i64
  %21 = getelementptr inbounds [8 x ptr], ptr %18, i64 0, i64 %20
  %22 = load ptr, ptr %21, align 8, !tbaa !9
  store ptr %22, ptr %7, align 8, !tbaa !9
  call void @llvm.lifetime.start.p0(i64 1, ptr %8) #8
  %23 = load ptr, ptr %3, align 8, !tbaa !37
  %24 = getelementptr inbounds nuw %struct.FillBordersContext, ptr %23, i32 0, i32 11
  %25 = load i32, ptr %5, align 4, !tbaa !11
  %26 = sext i32 %25 to i64
  %27 = getelementptr inbounds [4 x i8], ptr %24, i64 0, i64 %26
  %28 = load i8, ptr %27, align 1, !tbaa !66
  store i8 %28, ptr %8, align 1, !tbaa !66
  call void @llvm.lifetime.start.p0(i64 8, ptr %9) #8
  %29 = load ptr, ptr %4, align 8, !tbaa !26
  %30 = getelementptr inbounds nuw %struct.AVFrame, ptr %29, i32 0, i32 1
  %31 = load i32, ptr %5, align 4, !tbaa !11
  %32 = sext i32 %31 to i64
  %33 = getelementptr inbounds [8 x i32], ptr %30, i64 0, i64 %32
  %34 = load i32, ptr %33, align 4, !tbaa !11
  %35 = sext i32 %34 to i64
  store i64 %35, ptr %9, align 8, !tbaa !70
  %36 = load ptr, ptr %3, align 8, !tbaa !37
  %37 = getelementptr inbounds nuw %struct.FillBordersContext, ptr %36, i32 0, i32 8
  %38 = load i32, ptr %5, align 4, !tbaa !11
  %39 = sext i32 %38 to i64
  %40 = getelementptr inbounds [4 x %struct.Borders], ptr %37, i64 0, i64 %39
  %41 = getelementptr inbounds nuw %struct.Borders, ptr %40, i32 0, i32 2
  %42 = load i32, ptr %41, align 4, !tbaa !63
  store i32 %42, ptr %6, align 4, !tbaa !11
  br label %43

43:                                               ; preds = %113, %16
  %44 = load i32, ptr %6, align 4, !tbaa !11
  %45 = load ptr, ptr %3, align 8, !tbaa !37
  %46 = getelementptr inbounds nuw %struct.FillBordersContext, ptr %45, i32 0, i32 10
  %47 = load i32, ptr %5, align 4, !tbaa !11
  %48 = sext i32 %47 to i64
  %49 = getelementptr inbounds [4 x i32], ptr %46, i64 0, i64 %48
  %50 = load i32, ptr %49, align 4, !tbaa !11
  %51 = load ptr, ptr %3, align 8, !tbaa !37
  %52 = getelementptr inbounds nuw %struct.FillBordersContext, ptr %51, i32 0, i32 8
  %53 = load i32, ptr %5, align 4, !tbaa !11
  %54 = sext i32 %53 to i64
  %55 = getelementptr inbounds [4 x %struct.Borders], ptr %52, i64 0, i64 %54
  %56 = getelementptr inbounds nuw %struct.Borders, ptr %55, i32 0, i32 3
  %57 = load i32, ptr %56, align 4, !tbaa !64
  %58 = sub nsw i32 %50, %57
  %59 = icmp slt i32 %44, %58
  br i1 %59, label %60, label %116

60:                                               ; preds = %43
  %61 = load ptr, ptr %7, align 8, !tbaa !9
  %62 = load i32, ptr %6, align 4, !tbaa !11
  %63 = sext i32 %62 to i64
  %64 = load i64, ptr %9, align 8, !tbaa !70
  %65 = mul nsw i64 %63, %64
  %66 = getelementptr inbounds i8, ptr %61, i64 %65
  %67 = load i8, ptr %8, align 1, !tbaa !66
  %68 = zext i8 %67 to i32
  %69 = trunc i32 %68 to i8
  %70 = load ptr, ptr %3, align 8, !tbaa !37
  %71 = getelementptr inbounds nuw %struct.FillBordersContext, ptr %70, i32 0, i32 8
  %72 = load i32, ptr %5, align 4, !tbaa !11
  %73 = sext i32 %72 to i64
  %74 = getelementptr inbounds [4 x %struct.Borders], ptr %71, i64 0, i64 %73
  %75 = getelementptr inbounds nuw %struct.Borders, ptr %74, i32 0, i32 0
  %76 = load i32, ptr %75, align 4, !tbaa !60
  %77 = sext i32 %76 to i64
  call void @llvm.memset.p0.i64(ptr align 1 %66, i8 %69, i64 %77, i1 false)
  %78 = load ptr, ptr %7, align 8, !tbaa !9
  %79 = load i32, ptr %6, align 4, !tbaa !11
  %80 = sext i32 %79 to i64
  %81 = load i64, ptr %9, align 8, !tbaa !70
  %82 = mul nsw i64 %80, %81
  %83 = getelementptr inbounds i8, ptr %78, i64 %82
  %84 = load ptr, ptr %3, align 8, !tbaa !37
  %85 = getelementptr inbounds nuw %struct.FillBordersContext, ptr %84, i32 0, i32 9
  %86 = load i32, ptr %5, align 4, !tbaa !11
  %87 = sext i32 %86 to i64
  %88 = getelementptr inbounds [4 x i32], ptr %85, i64 0, i64 %87
  %89 = load i32, ptr %88, align 4, !tbaa !11
  %90 = sext i32 %89 to i64
  %91 = getelementptr inbounds i8, ptr %83, i64 %90
  %92 = load ptr, ptr %3, align 8, !tbaa !37
  %93 = getelementptr inbounds nuw %struct.FillBordersContext, ptr %92, i32 0, i32 8
  %94 = load i32, ptr %5, align 4, !tbaa !11
  %95 = sext i32 %94 to i64
  %96 = getelementptr inbounds [4 x %struct.Borders], ptr %93, i64 0, i64 %95
  %97 = getelementptr inbounds nuw %struct.Borders, ptr %96, i32 0, i32 1
  %98 = load i32, ptr %97, align 4, !tbaa !62
  %99 = sext i32 %98 to i64
  %100 = sub i64 0, %99
  %101 = getelementptr inbounds i8, ptr %91, i64 %100
  %102 = load i8, ptr %8, align 1, !tbaa !66
  %103 = zext i8 %102 to i32
  %104 = trunc i32 %103 to i8
  %105 = load ptr, ptr %3, align 8, !tbaa !37
  %106 = getelementptr inbounds nuw %struct.FillBordersContext, ptr %105, i32 0, i32 8
  %107 = load i32, ptr %5, align 4, !tbaa !11
  %108 = sext i32 %107 to i64
  %109 = getelementptr inbounds [4 x %struct.Borders], ptr %106, i64 0, i64 %108
  %110 = getelementptr inbounds nuw %struct.Borders, ptr %109, i32 0, i32 1
  %111 = load i32, ptr %110, align 4, !tbaa !62
  %112 = sext i32 %111 to i64
  call void @llvm.memset.p0.i64(ptr align 1 %101, i8 %104, i64 %112, i1 false)
  br label %113

113:                                              ; preds = %60
  %114 = load i32, ptr %6, align 4, !tbaa !11
  %115 = add nsw i32 %114, 1
  store i32 %115, ptr %6, align 4, !tbaa !11
  br label %43, !llvm.loop !97

116:                                              ; preds = %43
  store i32 0, ptr %6, align 4, !tbaa !11
  br label %117

117:                                              ; preds = %144, %116
  %118 = load i32, ptr %6, align 4, !tbaa !11
  %119 = load ptr, ptr %3, align 8, !tbaa !37
  %120 = getelementptr inbounds nuw %struct.FillBordersContext, ptr %119, i32 0, i32 8
  %121 = load i32, ptr %5, align 4, !tbaa !11
  %122 = sext i32 %121 to i64
  %123 = getelementptr inbounds [4 x %struct.Borders], ptr %120, i64 0, i64 %122
  %124 = getelementptr inbounds nuw %struct.Borders, ptr %123, i32 0, i32 2
  %125 = load i32, ptr %124, align 4, !tbaa !63
  %126 = icmp slt i32 %118, %125
  br i1 %126, label %127, label %147

127:                                              ; preds = %117
  %128 = load ptr, ptr %7, align 8, !tbaa !9
  %129 = load i32, ptr %6, align 4, !tbaa !11
  %130 = sext i32 %129 to i64
  %131 = load i64, ptr %9, align 8, !tbaa !70
  %132 = mul nsw i64 %130, %131
  %133 = getelementptr inbounds i8, ptr %128, i64 %132
  %134 = load i8, ptr %8, align 1, !tbaa !66
  %135 = zext i8 %134 to i32
  %136 = trunc i32 %135 to i8
  %137 = load ptr, ptr %3, align 8, !tbaa !37
  %138 = getelementptr inbounds nuw %struct.FillBordersContext, ptr %137, i32 0, i32 9
  %139 = load i32, ptr %5, align 4, !tbaa !11
  %140 = sext i32 %139 to i64
  %141 = getelementptr inbounds [4 x i32], ptr %138, i64 0, i64 %140
  %142 = load i32, ptr %141, align 4, !tbaa !11
  %143 = sext i32 %142 to i64
  call void @llvm.memset.p0.i64(ptr align 1 %133, i8 %136, i64 %143, i1 false)
  br label %144

144:                                              ; preds = %127
  %145 = load i32, ptr %6, align 4, !tbaa !11
  %146 = add nsw i32 %145, 1
  store i32 %146, ptr %6, align 4, !tbaa !11
  br label %117, !llvm.loop !98

147:                                              ; preds = %117
  %148 = load ptr, ptr %3, align 8, !tbaa !37
  %149 = getelementptr inbounds nuw %struct.FillBordersContext, ptr %148, i32 0, i32 10
  %150 = load i32, ptr %5, align 4, !tbaa !11
  %151 = sext i32 %150 to i64
  %152 = getelementptr inbounds [4 x i32], ptr %149, i64 0, i64 %151
  %153 = load i32, ptr %152, align 4, !tbaa !11
  %154 = load ptr, ptr %3, align 8, !tbaa !37
  %155 = getelementptr inbounds nuw %struct.FillBordersContext, ptr %154, i32 0, i32 8
  %156 = load i32, ptr %5, align 4, !tbaa !11
  %157 = sext i32 %156 to i64
  %158 = getelementptr inbounds [4 x %struct.Borders], ptr %155, i64 0, i64 %157
  %159 = getelementptr inbounds nuw %struct.Borders, ptr %158, i32 0, i32 3
  %160 = load i32, ptr %159, align 4, !tbaa !64
  %161 = sub nsw i32 %153, %160
  store i32 %161, ptr %6, align 4, !tbaa !11
  br label %162

162:                                              ; preds = %188, %147
  %163 = load i32, ptr %6, align 4, !tbaa !11
  %164 = load ptr, ptr %3, align 8, !tbaa !37
  %165 = getelementptr inbounds nuw %struct.FillBordersContext, ptr %164, i32 0, i32 10
  %166 = load i32, ptr %5, align 4, !tbaa !11
  %167 = sext i32 %166 to i64
  %168 = getelementptr inbounds [4 x i32], ptr %165, i64 0, i64 %167
  %169 = load i32, ptr %168, align 4, !tbaa !11
  %170 = icmp slt i32 %163, %169
  br i1 %170, label %171, label %191

171:                                              ; preds = %162
  %172 = load ptr, ptr %7, align 8, !tbaa !9
  %173 = load i32, ptr %6, align 4, !tbaa !11
  %174 = sext i32 %173 to i64
  %175 = load i64, ptr %9, align 8, !tbaa !70
  %176 = mul nsw i64 %174, %175
  %177 = getelementptr inbounds i8, ptr %172, i64 %176
  %178 = load i8, ptr %8, align 1, !tbaa !66
  %179 = zext i8 %178 to i32
  %180 = trunc i32 %179 to i8
  %181 = load ptr, ptr %3, align 8, !tbaa !37
  %182 = getelementptr inbounds nuw %struct.FillBordersContext, ptr %181, i32 0, i32 9
  %183 = load i32, ptr %5, align 4, !tbaa !11
  %184 = sext i32 %183 to i64
  %185 = getelementptr inbounds [4 x i32], ptr %182, i64 0, i64 %184
  %186 = load i32, ptr %185, align 4, !tbaa !11
  %187 = sext i32 %186 to i64
  call void @llvm.memset.p0.i64(ptr align 1 %177, i8 %180, i64 %187, i1 false)
  br label %188

188:                                              ; preds = %171
  %189 = load i32, ptr %6, align 4, !tbaa !11
  %190 = add nsw i32 %189, 1
  store i32 %190, ptr %6, align 4, !tbaa !11
  br label %162, !llvm.loop !99

191:                                              ; preds = %162
  call void @llvm.lifetime.end.p0(i64 8, ptr %9) #8
  call void @llvm.lifetime.end.p0(i64 1, ptr %8) #8
  call void @llvm.lifetime.end.p0(i64 8, ptr %7) #8
  br label %192

192:                                              ; preds = %191
  %193 = load i32, ptr %5, align 4, !tbaa !11
  %194 = add nsw i32 %193, 1
  store i32 %194, ptr %5, align 4, !tbaa !11
  br label %10, !llvm.loop !100

195:                                              ; preds = %10
  call void @llvm.lifetime.end.p0(i64 4, ptr %6) #8
  call void @llvm.lifetime.end.p0(i64 4, ptr %5) #8
  ret void
}