; Function Attrs: nofree norecurse nosync nounwind memory(write, argmem: readwrite, inaccessiblemem: none) uwtable
define internal void @fixed_borders8(ptr noundef readonly captures(none) %0, ptr noundef readonly captures(none) %1) #4 {
  %3 = getelementptr inbounds nuw i8, ptr %0, i64 28
  %4 = load i32, ptr %3, align 4, !tbaa !39
  %5 = icmp sgt i32 %4, 0
  br i1 %5, label %.lr.ph67, label %._crit_edge68

.lr.ph67:                                         ; preds = %2
  %6 = getelementptr inbounds nuw i8, ptr %0, i64 132
  %7 = getelementptr inbounds nuw i8, ptr %1, i64 64
  %8 = getelementptr inbounds nuw i8, ptr %0, i64 36
  %9 = getelementptr inbounds nuw i8, ptr %0, i64 116
  %10 = getelementptr inbounds nuw i8, ptr %0, i64 100
  br label %11

11:                                               ; preds = %.lr.ph67, %._crit_edge64
  %indvars.iv76 = phi i64 [ 0, %.lr.ph67 ], [ %indvars.iv.next77, %._crit_edge64 ]
  %12 = getelementptr inbounds nuw [8 x ptr], ptr %1, i64 0, i64 %indvars.iv76
  %13 = load ptr, ptr %12, align 8, !tbaa !62
  %14 = getelementptr inbounds nuw [4 x i8], ptr %6, i64 0, i64 %indvars.iv76
  %15 = load i8, ptr %14, align 1, !tbaa !58
  %16 = getelementptr inbounds nuw [8 x i32], ptr %7, i64 0, i64 %indvars.iv76
  %17 = load i32, ptr %16, align 4, !tbaa !45
  %18 = sext i32 %17 to i64
  %19 = getelementptr inbounds nuw [4 x %struct.Borders], ptr %8, i64 0, i64 %indvars.iv76
  %20 = getelementptr inbounds nuw i8, ptr %19, i64 8
  %21 = load i32, ptr %20, align 4, !tbaa !55
  %22 = getelementptr inbounds nuw [4 x i32], ptr %9, i64 0, i64 %indvars.iv76
  %23 = getelementptr inbounds nuw i8, ptr %19, i64 12
  %24 = load i32, ptr %22, align 4, !tbaa !45
  %25 = load i32, ptr %23, align 4, !tbaa !56
  %26 = sub nsw i32 %24, %25
  %27 = icmp slt i32 %21, %26
  br i1 %27, label %.lr.ph, label %.preheader

.lr.ph:                                           ; preds = %11
  %28 = getelementptr inbounds nuw [4 x i32], ptr %10, i64 0, i64 %indvars.iv76
  %29 = getelementptr inbounds nuw i8, ptr %19, i64 4
  %30 = sext i32 %21 to i64
  br label %35

.preheader.loopexit:                              ; preds = %35
  %.pre = load i32, ptr %20, align 4, !tbaa !55
  br label %.preheader

.preheader:                                       ; preds = %.preheader.loopexit, %11
  %31 = phi i32 [ %48, %.preheader.loopexit ], [ %25, %11 ]
  %32 = phi i32 [ %.pre, %.preheader.loopexit ], [ %21, %11 ]
  %33 = icmp sgt i32 %32, 0
  br i1 %33, label %.lr.ph60, label %._crit_edge

.lr.ph60:                                         ; preds = %.preheader
  %34 = getelementptr inbounds nuw [4 x i32], ptr %10, i64 0, i64 %indvars.iv76
  br label %52

35:                                               ; preds = %.lr.ph, %35
  %indvars.iv = phi i64 [ %30, %.lr.ph ], [ %indvars.iv.next, %35 ]
  %36 = mul nsw i64 %indvars.iv, %18
  %37 = getelementptr inbounds i8, ptr %13, i64 %36
  %38 = load i32, ptr %19, align 4, !tbaa !52
  %39 = sext i32 %38 to i64
  tail call void @llvm.memset.p0.i64(ptr align 1 %37, i8 %15, i64 %39, i1 false)
  %40 = load i32, ptr %28, align 4, !tbaa !45
  %41 = sext i32 %40 to i64
  %42 = getelementptr inbounds i8, ptr %37, i64 %41
  %43 = load i32, ptr %29, align 4, !tbaa !54
  %44 = sext i32 %43 to i64
  %45 = sub nsw i64 0, %44
  %46 = getelementptr inbounds i8, ptr %42, i64 %45
  tail call void @llvm.memset.p0.i64(ptr align 1 %46, i8 %15, i64 %44, i1 false)
  %indvars.iv.next = add nsw i64 %indvars.iv, 1
  %47 = load i32, ptr %22, align 4, !tbaa !45
  %48 = load i32, ptr %23, align 4, !tbaa !56
  %49 = sub nsw i32 %47, %48
  %50 = sext i32 %49 to i64
  %51 = icmp slt i64 %indvars.iv.next, %50
  br i1 %51, label %35, label %.preheader.loopexit, !llvm.loop !87

52:                                               ; preds = %.lr.ph60, %52
  %indvars.iv70 = phi i64 [ 0, %.lr.ph60 ], [ %indvars.iv.next71, %52 ]
  %53 = mul nsw i64 %indvars.iv70, %18
  %54 = getelementptr inbounds i8, ptr %13, i64 %53
  %55 = load i32, ptr %34, align 4, !tbaa !45
  %56 = sext i32 %55 to i64
  tail call void @llvm.memset.p0.i64(ptr align 1 %54, i8 %15, i64 %56, i1 false)
  %indvars.iv.next71 = add nuw nsw i64 %indvars.iv70, 1
  %57 = load i32, ptr %20, align 4, !tbaa !55
  %58 = sext i32 %57 to i64
  %59 = icmp slt i64 %indvars.iv.next71, %58
  br i1 %59, label %52, label %._crit_edge.loopexit, !llvm.loop !88

._crit_edge.loopexit:                             ; preds = %52
  %.pre79 = load i32, ptr %23, align 4, !tbaa !56
  br label %._crit_edge

._crit_edge:                                      ; preds = %._crit_edge.loopexit, %.preheader
  %60 = phi i32 [ %.pre79, %._crit_edge.loopexit ], [ %31, %.preheader ]
  %61 = icmp sgt i32 %60, 0
  br i1 %61, label %.lr.ph63, label %._crit_edge64

.lr.ph63:                                         ; preds = %._crit_edge
  %62 = load i32, ptr %22, align 4, !tbaa !45
  %63 = sub i32 %62, %60
  %64 = getelementptr inbounds nuw [4 x i32], ptr %10, i64 0, i64 %indvars.iv76
  %65 = sext i32 %63 to i64
  br label %66

66:                                               ; preds = %.lr.ph63, %66
  %indvars.iv73 = phi i64 [ %65, %.lr.ph63 ], [ %indvars.iv.next74, %66 ]
  %67 = mul nsw i64 %indvars.iv73, %18
  %68 = getelementptr inbounds i8, ptr %13, i64 %67
  %69 = load i32, ptr %64, align 4, !tbaa !45
  %70 = sext i32 %69 to i64
  tail call void @llvm.memset.p0.i64(ptr align 1 %68, i8 %15, i64 %70, i1 false)
  %indvars.iv.next74 = add nsw i64 %indvars.iv73, 1
  %71 = load i32, ptr %22, align 4, !tbaa !45
  %72 = sext i32 %71 to i64
  %73 = icmp slt i64 %indvars.iv.next74, %72
  br i1 %73, label %66, label %._crit_edge64, !llvm.loop !89

._crit_edge64:                                    ; preds = %66, %._crit_edge
  %indvars.iv.next77 = add nuw nsw i64 %indvars.iv76, 1
  %74 = load i32, ptr %3, align 4, !tbaa !39
  %75 = sext i32 %74 to i64
  %76 = icmp slt i64 %indvars.iv.next77, %75
  br i1 %76, label %11, label %._crit_edge68, !llvm.loop !90

._crit_edge68:                                    ; preds = %._crit_edge64, %2
  ret void
}